target datalayout = "e-m:e-p270:32:32-p271:32:32-p272:64:64-i64:64-i128:128-f80:128-n8:16:32:64-S128"
target triple = "x86_64-pc-linux-gnu"

; Function Attrs: nounwind uwtable
define i32 @generate_cookie_callback(ptr noundef %0, ptr noundef %1, ptr noundef %2) #0 {
  %4 = alloca ptr, align 8
  %5 = alloca ptr, align 8
  %6 = alloca ptr, align 8
  %7 = alloca i64, align 8
  %8 = alloca i32, align 4
  store ptr %0, ptr %4, align 8, !tbaa !27
  store ptr %1, ptr %5, align 8, !tbaa !21
  store ptr %2, ptr %6, align 8, !tbaa !34
  call void @llvm.lifetime.start.p0(i64 8, ptr %7) #10
  store i64 0, ptr %7, align 8, !tbaa !38
  call void @llvm.lifetime.start.p0(i64 4, ptr %8) #10
  %9 = load ptr, ptr %4, align 8, !tbaa !27
  %10 = load ptr, ptr %5, align 8, !tbaa !21
  %11 = call i32 @generate_stateless_cookie_callback(ptr noundef %9, ptr noundef %10, ptr noundef %7)
  store i32 %11, ptr %8, align 4, !tbaa !3
  %12 = load i32, ptr %8, align 4, !tbaa !3
  %13 = icmp ne i32 %12, 0
  br i1 %13, label %14, label %18

14:                                               ; preds = %3
  %15 = load i64, ptr %7, align 8, !tbaa !38
  %16 = trunc i64 %15 to i32
  %17 = load ptr, ptr %6, align 8, !tbaa !34
  store i32 %16, ptr %17, align 4, !tbaa !3
  br label %18

18:                                               ; preds = %14, %3
  %19 = load i32, ptr %8, align 4, !tbaa !3
  call void @llvm.lifetime.end.p0(i64 4, ptr %8) #10
  call void @llvm.lifetime.end.p0(i64 8, ptr %7) #10
  ret i32 %19
}