; Function Attrs: nounwind uwtable
define range(i32 0, 2) i32 @generate_cookie_callback(ptr noundef %0, ptr noundef %1, ptr noundef writeonly captures(none) %2) local_unnamed_addr #0 {
  %4 = alloca i64, align 8
  call void @llvm.lifetime.start.p0(i64 8, ptr nonnull %4) #6
  store i64 0, ptr %4, align 8, !tbaa !29
  %5 = call i32 @generate_stateless_cookie_callback(ptr noundef %0, ptr noundef %1, ptr noundef nonnull %4)
  %.not = icmp eq i32 %5, 0
  br i1 %.not, label %9, label %6

6:                                                ; preds = %3
  %7 = load i64, ptr %4, align 8, !tbaa !29
  %8 = trunc i64 %7 to i32
  store i32 %8, ptr %2, align 4, !tbaa !22
  br label %9

9:                                                ; preds = %6, %3
  call void @llvm.lifetime.end.p0(i64 8, ptr nonnull %4) #6
  ret i32 %5
}